; Function Attrs: nounwind uwtable
define i32 @Prs_CreateRange(ptr noundef captures(none) %0, i32 noundef %1, i32 noundef %2) local_unnamed_addr #0 {
  %.val = load ptr, ptr %0, align 8
  %4 = getelementptr inbounds nuw i8, ptr %.val, i64 48
  %5 = add nsw i32 %2, 1
  tail call fastcc void @Vec_IntFillExtra(ptr noundef nonnull %4, i32 noundef %5)
  %6 = getelementptr i8, ptr %.val, i64 56
  %.val.i.i.i = load ptr, ptr %6, align 8
  %7 = sext i32 %2 to i64
  %8 = getelementptr inbounds i32, ptr %.val.i.i.i, i64 %7
  %9 = load i32, ptr %8, align 4
  %10 = sub nsw i32 0, %9
  %11 = icmp sgt i32 %9, 0
  br i1 %11, label %12, label %39

12:                                               ; preds = %3
  %13 = getelementptr i8, ptr %0, i64 284
  %.val.i.i.i19 = load i32, ptr %13, align 4
  %14 = icmp slt i32 %.val.i.i.i19, 1
  br i1 %14, label %Cba_FonRangeSize.exit, label %Cba_FonRange.exit.i

Cba_FonRange.exit.i:                              ; preds = %12
  %15 = getelementptr inbounds nuw i8, ptr %0, i64 280
  %16 = add nuw nsw i32 %9, 1
  tail call fastcc void @Vec_IntFillExtra(ptr noundef nonnull %15, i32 noundef %16)
  %17 = getelementptr i8, ptr %0, i64 288
  %.val.i.i.i.i = load ptr, ptr %17, align 8
  %18 = zext nneg i32 %9 to i64
  %19 = getelementptr inbounds nuw i32, ptr %.val.i.i.i.i, i64 %18
  %20 = load i32, ptr %19, align 4
  %.not.i.i.i = icmp ult i32 %20, 2
  br i1 %.not.i.i.i, label %Cba_FonRangeSize.exit, label %21

21:                                               ; preds = %Cba_FonRange.exit.i
  %22 = load ptr, ptr %0, align 8
  %23 = getelementptr inbounds nuw i8, ptr %22, i64 40
  %24 = load ptr, ptr %23, align 8
  %25 = getelementptr inbounds nuw i8, ptr %24, i64 8
  %26 = load ptr, ptr %25, align 8
  %27 = shl nsw i32 %20, 1
  %28 = and i32 %27, -4
  %29 = getelementptr i8, ptr %26, i64 8
  %.val.i.i.i.i.i = load ptr, ptr %29, align 8
  %30 = sext i32 %28 to i64
  %31 = getelementptr inbounds i32, ptr %.val.i.i.i.i.i, i64 %30
  %32 = load i32, ptr %31, align 4
  %33 = getelementptr inbounds nuw i8, ptr %31, i64 4
  %34 = load i32, ptr %33, align 4
  %35 = sub nsw i32 %32, %34
  br label %Cba_FonRangeSize.exit

Cba_FonRangeSize.exit:                            ; preds = %12, %Cba_FonRange.exit.i, %21
  %36 = phi i32 [ %35, %21 ], [ 0, %Cba_FonRange.exit.i ], [ 0, %12 ]
  %37 = tail call i32 @llvm.abs.i32(i32 %36, i1 true)
  %38 = add nuw nsw i32 %37, 1
  br label %Cba_FonRangeSize.exit30

39:                                               ; preds = %3
  %.val18 = load ptr, ptr %0, align 8
  %40 = getelementptr inbounds nuw i8, ptr %.val18, i64 48
  tail call fastcc void @Vec_IntFillExtra(ptr noundef nonnull %40, i32 noundef %5)
  %41 = getelementptr i8, ptr %.val18, i64 56
  %.val.i.i.i20 = load ptr, ptr %41, align 8
  %42 = getelementptr inbounds i32, ptr %.val.i.i.i20, i64 %7
  store i32 0, ptr %42, align 4
  %.val17 = load ptr, ptr %0, align 8
  tail call fastcc void @Cba_NtkSetMap(ptr %.val17, i32 noundef %2, i32 noundef %1)
  %43 = icmp eq i32 %9, 0
  br i1 %43, label %Cba_FonRangeSize.exit30, label %44

44:                                               ; preds = %39
  %45 = getelementptr inbounds nuw i8, ptr %0, i64 280
  %46 = add nsw i32 %1, 1
  tail call fastcc void @Vec_IntFillExtra(ptr noundef nonnull %45, i32 noundef %46)
  %47 = getelementptr i8, ptr %0, i64 288
  %.val.i.i = load ptr, ptr %47, align 8
  %48 = sext i32 %1 to i64
  %49 = getelementptr inbounds i32, ptr %.val.i.i, i64 %48
  store i32 %10, ptr %49, align 4
  %.not.i21 = icmp sgt i32 %1, -1
  br i1 %.not.i21, label %55, label %50

50:                                               ; preds = %44
  %.val.i22 = load ptr, ptr %0, align 8
  %51 = getelementptr i8, ptr %.val.i22, i64 24
  %.val.val.i23 = load ptr, ptr %51, align 8
  %52 = xor i32 %1, -1
  %53 = tail call ptr @Abc_NamStr(ptr noundef %.val.val.i23, i32 noundef range(i32 -2147483648, 2147483647) %52) #28
  %54 = tail call i32 @atoi(ptr noundef %53) #31
  br label %Cba_FonRangeSize.exit30

55:                                               ; preds = %44
  %56 = getelementptr i8, ptr %0, i64 284
  %.val.i.i.i24 = load i32, ptr %56, align 4
  %57 = icmp slt i32 %.val.i.i.i24, 1
  br i1 %57, label %Cba_NtkRangeSize.exit.i29, label %Cba_FonRange.exit.i25

Cba_FonRange.exit.i25:                            ; preds = %55
  tail call fastcc void @Vec_IntFillExtra(ptr noundef nonnull %45, i32 noundef %46)
  %.val.i.i.i.i26 = load ptr, ptr %47, align 8
  %58 = zext nneg i32 %1 to i64
  %59 = getelementptr inbounds nuw i32, ptr %.val.i.i.i.i26, i64 %58
  %60 = load i32, ptr %59, align 4
  %.not.i.i.i27 = icmp ult i32 %60, 2
  br i1 %.not.i.i.i27, label %Cba_NtkRangeSize.exit.i29, label %61

61:                                               ; preds = %Cba_FonRange.exit.i25
  %62 = load ptr, ptr %0, align 8
  %63 = getelementptr inbounds nuw i8, ptr %62, i64 40
  %64 = load ptr, ptr %63, align 8
  %65 = getelementptr inbounds nuw i8, ptr %64, i64 8
  %66 = load ptr, ptr %65, align 8
  %67 = shl nsw i32 %60, 1
  %68 = and i32 %67, -4
  %69 = getelementptr i8, ptr %66, i64 8
  %.val.i.i.i.i.i28 = load ptr, ptr %69, align 8
  %70 = sext i32 %68 to i64
  %71 = getelementptr inbounds i32, ptr %.val.i.i.i.i.i28, i64 %70
  %72 = load i32, ptr %71, align 4
  %73 = getelementptr inbounds nuw i8, ptr %71, i64 4
  %74 = load i32, ptr %73, align 4
  %75 = sub nsw i32 %72, %74
  br label %Cba_NtkRangeSize.exit.i29

Cba_NtkRangeSize.exit.i29:                        ; preds = %61, %Cba_FonRange.exit.i25, %55
  %76 = phi i32 [ %75, %61 ], [ 0, %Cba_FonRange.exit.i25 ], [ 0, %55 ]
  %77 = tail call i32 @llvm.abs.i32(i32 %76, i1 true)
  %78 = add nuw nsw i32 %77, 1
  br label %Cba_FonRangeSize.exit30

Cba_FonRangeSize.exit30:                          ; preds = %Cba_NtkRangeSize.exit.i29, %50, %39, %Cba_FonRangeSize.exit
  %.0 = phi i32 [ %38, %Cba_FonRangeSize.exit ], [ 1, %39 ], [ %54, %50 ], [ %78, %Cba_NtkRangeSize.exit.i29 ]
  ret i32 %.0
}